target datalayout = "e-m:e-p270:32:32-p271:32:32-p272:64:64-i64:64-i128:128-f80:128-n8:16:32:64-S128"
target triple = "x86_64-pc-linux-gnu"

%struct.jv = type { i8, i8, i16, i32, %union.anon }
%union.anon = type { ptr }
%struct.jq_util_input_state = type { ptr, ptr, ptr, ptr, ptr, i32, i32, i32, %struct.jv, [4096 x i8], i64, %struct.jv, i64 }

@stderr = external global ptr, align 8

; Function Attrs: nounwind uwtable
define dso_local ptr @jq_util_input_init(ptr noundef %0, ptr noundef %1) #0 {
  %3 = alloca ptr, align 8
  %4 = alloca ptr, align 8
  %5 = alloca ptr, align 8
  %6 = alloca %struct.jv, align 8
  %7 = alloca %struct.jv, align 8
  store ptr %0, ptr %3, align 8, !tbaa !15
  store ptr %1, ptr %4, align 8, !tbaa !15
  %8 = load ptr, ptr %3, align 8, !tbaa !15
  %9 = icmp eq ptr %8, null
  br i1 %9, label %10, label %12

10:                                               ; preds = %2
  store ptr @fprinter, ptr %3, align 8, !tbaa !15
  %11 = load ptr, ptr @stderr, align 8, !tbaa !18
  store ptr %11, ptr %4, align 8, !tbaa !15
  br label %12

12:                                               ; preds = %10, %2
  call void @llvm.lifetime.start.p0(i64 8, ptr %5) #8
  %13 = call ptr @jv_mem_calloc(i64 noundef 1, i64 noundef 4200)
  store ptr %13, ptr %5, align 8, !tbaa !20
  %14 = load ptr, ptr %3, align 8, !tbaa !15
  %15 = load ptr, ptr %5, align 8, !tbaa !20
  %16 = getelementptr inbounds nuw %struct.jq_util_input_state, ptr %15, i32 0, i32 0
  store ptr %14, ptr %16, align 8, !tbaa !22
  %17 = load ptr, ptr %4, align 8, !tbaa !15
  %18 = load ptr, ptr %5, align 8, !tbaa !20
  %19 = getelementptr inbounds nuw %struct.jq_util_input_state, ptr %18, i32 0, i32 1
  store ptr %17, ptr %19, align 8, !tbaa !27
  %20 = load ptr, ptr %5, align 8, !tbaa !20
  %21 = getelementptr inbounds nuw %struct.jq_util_input_state, ptr %20, i32 0, i32 8
  call void @llvm.lifetime.start.p0(i64 16, ptr %6) #8
  %22 = call { i64, ptr } @jv_invalid()
  %23 = getelementptr inbounds nuw { i64, ptr }, ptr %6, i32 0, i32 0
  %24 = extractvalue { i64, ptr } %22, 0
  store i64 %24, ptr %23, align 8
  %25 = getelementptr inbounds nuw { i64, ptr }, ptr %6, i32 0, i32 1
  %26 = extractvalue { i64, ptr } %22, 1
  store ptr %26, ptr %25, align 8
  call void @llvm.memcpy.p0.p0.i64(ptr align 8 %21, ptr align 8 %6, i64 16, i1 false), !tbaa.struct !9
  call void @llvm.lifetime.end.p0(i64 16, ptr %6) #8
  %27 = load ptr, ptr %5, align 8, !tbaa !20
  %28 = getelementptr inbounds nuw %struct.jq_util_input_state, ptr %27, i32 0, i32 11
  call void @llvm.lifetime.start.p0(i64 16, ptr %7) #8
  %29 = call { i64, ptr } @jv_invalid()
  %30 = getelementptr inbounds nuw { i64, ptr }, ptr %7, i32 0, i32 0
  %31 = extractvalue { i64, ptr } %29, 0
  store i64 %31, ptr %30, align 8
  %32 = getelementptr inbounds nuw { i64, ptr }, ptr %7, i32 0, i32 1
  %33 = extractvalue { i64, ptr } %29, 1
  store ptr %33, ptr %32, align 8
  call void @llvm.memcpy.p0.p0.i64(ptr align 8 %28, ptr align 8 %7, i64 16, i1 false), !tbaa.struct !9
  call void @llvm.lifetime.end.p0(i64 16, ptr %7) #8
  %34 = load ptr, ptr %5, align 8, !tbaa !20
  call void @llvm.lifetime.end.p0(i64 8, ptr %5) #8
  ret ptr %34
}