; Function Attrs: nounwind uwtable
define dso_local noundef ptr @jq_util_input_init(ptr noundef %0, ptr noundef %1) local_unnamed_addr #0 {
  %3 = icmp eq ptr %0, null
  %4 = load ptr, ptr @stderr, align 8
  %spec.select = select i1 %3, ptr %4, ptr %1
  %spec.select12 = select i1 %3, ptr @fprinter, ptr %0
  %5 = tail call ptr @jv_mem_calloc(i64 noundef 1, i64 noundef 4200) #13
  store ptr %spec.select12, ptr %5, align 8, !tbaa !7
  %6 = getelementptr inbounds nuw i8, ptr %5, i64 8
  store ptr %spec.select, ptr %6, align 8, !tbaa !17
  %7 = getelementptr inbounds nuw i8, ptr %5, i64 56
  %8 = tail call { i64, ptr } @jv_invalid() #13
  %9 = extractvalue { i64, ptr } %8, 0
  %10 = extractvalue { i64, ptr } %8, 1
  store i64 %9, ptr %7, align 8
  %.sroa.42.0..sroa_idx = getelementptr inbounds nuw i8, ptr %5, i64 64
  store ptr %10, ptr %.sroa.42.0..sroa_idx, align 8, !tbaa !4
  %11 = getelementptr inbounds nuw i8, ptr %5, i64 4176
  %12 = tail call { i64, ptr } @jv_invalid() #13
  %13 = extractvalue { i64, ptr } %12, 0
  %14 = extractvalue { i64, ptr } %12, 1
  store i64 %13, ptr %11, align 8
  %.sroa.4.0..sroa_idx = getelementptr inbounds nuw i8, ptr %5, i64 4184
  store ptr %14, ptr %.sroa.4.0..sroa_idx, align 8, !tbaa !4
  ret ptr %5
}